target datalayout = "e-m:e-p270:32:32-p271:32:32-p272:64:64-i64:64-i128:128-f80:128-n8:16:32:64-S128"
target triple = "x86_64-unknown-linux-gnu"

%struct.iovec = type { ptr, i64 }

@.str = private unnamed_addr constant [12 x i8] c"offset == 0\00", align 1
@.str.1 = private unnamed_addr constant [19 x i8] c"../qemu/util/iov.c\00", align 1
@__PRETTY_FUNCTION__.iov_copy = private unnamed_addr constant [104 x i8] c"unsigned int iov_copy(struct iovec *, unsigned int, const struct iovec *, unsigned int, size_t, size_t)\00", align 1

; Function Attrs: nounwind sspstrong uwtable
define dso_local i32 @iov_copy(ptr noundef %dst_iov, i32 noundef %dst_iov_cnt, ptr noundef %iov, i32 noundef %iov_cnt, i64 noundef %offset, i64 noundef %bytes) #0 {
entry:
  %dst_iov.addr = alloca ptr, align 8
  %dst_iov_cnt.addr = alloca i32, align 4
  %iov.addr = alloca ptr, align 8
  %iov_cnt.addr = alloca i32, align 4
  %offset.addr = alloca i64, align 8
  %bytes.addr = alloca i64, align 8
  %len = alloca i64, align 8
  %i = alloca i32, align 4
  %j = alloca i32, align 4
  %_a6 = alloca i64, align 8
  %_b7 = alloca i64, align 8
  %tmp = alloca i64, align 8
  store ptr %dst_iov, ptr %dst_iov.addr, align 8
  store i32 %dst_iov_cnt, ptr %dst_iov_cnt.addr, align 4
  store ptr %iov, ptr %iov.addr, align 8
  store i32 %iov_cnt, ptr %iov_cnt.addr, align 4
  store i64 %offset, ptr %offset.addr, align 8
  store i64 %bytes, ptr %bytes.addr, align 8
  store i32 0, ptr %i, align 4
  store i32 0, ptr %j, align 4
  br label %for.cond

for.cond:                                         ; preds = %for.inc, %entry
  %0 = load i32, ptr %i, align 4
  %1 = load i32, ptr %iov_cnt.addr, align 4
  %cmp = icmp ult i32 %0, %1
  br i1 %cmp, label %land.lhs.true, label %land.end

land.lhs.true:                                    ; preds = %for.cond
  %2 = load i32, ptr %j, align 4
  %3 = load i32, ptr %dst_iov_cnt.addr, align 4
  %cmp1 = icmp ult i32 %2, %3
  br i1 %cmp1, label %land.rhs, label %land.end

land.rhs:                                         ; preds = %land.lhs.true
  %4 = load i64, ptr %offset.addr, align 8
  %tobool = icmp ne i64 %4, 0
  br i1 %tobool, label %lor.end, label %lor.rhs

lor.rhs:                                          ; preds = %land.rhs
  %5 = load i64, ptr %bytes.addr, align 8
  %tobool2 = icmp ne i64 %5, 0
  br label %lor.end

lor.end:                                          ; preds = %lor.rhs, %land.rhs
  %6 = phi i1 [ true, %land.rhs ], [ %tobool2, %lor.rhs ]
  br label %land.end

land.end:                                         ; preds = %lor.end, %land.lhs.true, %for.cond
  %7 = phi i1 [ false, %land.lhs.true ], [ false, %for.cond ], [ %6, %lor.end ]
  br i1 %7, label %for.body, label %for.end

for.body:                                         ; preds = %land.end
  %8 = load i64, ptr %offset.addr, align 8
  %9 = load ptr, ptr %iov.addr, align 8
  %10 = load i32, ptr %i, align 4
  %idxprom = zext i32 %10 to i64
  %arrayidx = getelementptr %struct.iovec, ptr %9, i64 %idxprom
  %iov_len = getelementptr inbounds %struct.iovec, ptr %arrayidx, i32 0, i32 1
  %11 = load i64, ptr %iov_len, align 8
  %cmp3 = icmp uge i64 %8, %11
  br i1 %cmp3, label %if.then, label %if.end

if.then:                                          ; preds = %for.body
  %12 = load ptr, ptr %iov.addr, align 8
  %13 = load i32, ptr %i, align 4
  %idxprom4 = zext i32 %13 to i64
  %arrayidx5 = getelementptr %struct.iovec, ptr %12, i64 %idxprom4
  %iov_len6 = getelementptr inbounds %struct.iovec, ptr %arrayidx5, i32 0, i32 1
  %14 = load i64, ptr %iov_len6, align 8
  %15 = load i64, ptr %offset.addr, align 8
  %sub = sub i64 %15, %14
  store i64 %sub, ptr %offset.addr, align 8
  br label %for.inc

if.end:                                           ; preds = %for.body
  %16 = load i64, ptr %bytes.addr, align 8
  store i64 %16, ptr %_a6, align 8
  %17 = load ptr, ptr %iov.addr, align 8
  %18 = load i32, ptr %i, align 4
  %idxprom7 = zext i32 %18 to i64
  %arrayidx8 = getelementptr %struct.iovec, ptr %17, i64 %idxprom7
  %iov_len9 = getelementptr inbounds %struct.iovec, ptr %arrayidx8, i32 0, i32 1
  %19 = load i64, ptr %iov_len9, align 8
  %20 = load i64, ptr %offset.addr, align 8
  %sub10 = sub i64 %19, %20
  store i64 %sub10, ptr %_b7, align 8
  %21 = load i64, ptr %_a6, align 8
  %22 = load i64, ptr %_b7, align 8
  %cmp11 = icmp ult i64 %21, %22
  br i1 %cmp11, label %cond.true, label %cond.false

cond.true:                                        ; preds = %if.end
  %23 = load i64, ptr %_a6, align 8
  br label %cond.end

cond.false:                                       ; preds = %if.end
  %24 = load i64, ptr %_b7, align 8
  br label %cond.end

cond.end:                                         ; preds = %cond.false, %cond.true
  %cond = phi i64 [ %23, %cond.true ], [ %24, %cond.false ]
  store i64 %cond, ptr %tmp, align 8
  %25 = load i64, ptr %tmp, align 8
  store i64 %25, ptr %len, align 8
  %26 = load ptr, ptr %iov.addr, align 8
  %27 = load i32, ptr %i, align 4
  %idxprom12 = zext i32 %27 to i64
  %arrayidx13 = getelementptr %struct.iovec, ptr %26, i64 %idxprom12
  %iov_base = getelementptr inbounds %struct.iovec, ptr %arrayidx13, i32 0, i32 0
  %28 = load ptr, ptr %iov_base, align 8
  %29 = load i64, ptr %offset.addr, align 8
  %add.ptr = getelementptr i8, ptr %28, i64 %29
  %30 = load ptr, ptr %dst_iov.addr, align 8
  %31 = load i32, ptr %j, align 4
  %idxprom14 = zext i32 %31 to i64
  %arrayidx15 = getelementptr %struct.iovec, ptr %30, i64 %idxprom14
  %iov_base16 = getelementptr inbounds %struct.iovec, ptr %arrayidx15, i32 0, i32 0
  store ptr %add.ptr, ptr %iov_base16, align 8
  %32 = load i64, ptr %len, align 8
  %33 = load ptr, ptr %dst_iov.addr, align 8
  %34 = load i32, ptr %j, align 4
  %idxprom17 = zext i32 %34 to i64
  %arrayidx18 = getelementptr %struct.iovec, ptr %33, i64 %idxprom17
  %iov_len19 = getelementptr inbounds %struct.iovec, ptr %arrayidx18, i32 0, i32 1
  store i64 %32, ptr %iov_len19, align 8
  %35 = load i32, ptr %j, align 4
  %inc = add i32 %35, 1
  store i32 %inc, ptr %j, align 4
  %36 = load i64, ptr %len, align 8
  %37 = load i64, ptr %bytes.addr, align 8
  %sub20 = sub i64 %37, %36
  store i64 %sub20, ptr %bytes.addr, align 8
  store i64 0, ptr %offset.addr, align 8
  br label %for.inc

for.inc:                                          ; preds = %cond.end, %if.then
  %38 = load i32, ptr %i, align 4
  %inc21 = add i32 %38, 1
  store i32 %inc21, ptr %i, align 4
  br label %for.cond, !llvm.loop !13

for.end:                                          ; preds = %land.end
  %39 = load i64, ptr %offset.addr, align 8
  %cmp22 = icmp eq i64 %39, 0
  br i1 %cmp22, label %if.then23, label %if.else

if.then23:                                        ; preds = %for.end
  br label %if.end24

if.else:                                          ; preds = %for.end
  call void @__assert_fail(ptr noundef @.str, ptr noundef @.str.1, i32 noundef 269, ptr noundef @__PRETTY_FUNCTION__.iov_copy) #9
  unreachable

if.end24:                                         ; preds = %if.then23
  %40 = load i32, ptr %j, align 4
  ret i32 %40
}