; Function Attrs: nounwind sspstrong uwtable
define dso_local i32 @iov_copy(ptr noundef writeonly captures(none) %dst_iov, i32 noundef %dst_iov_cnt, ptr noundef readonly captures(none) %iov, i32 noundef %iov_cnt, i64 noundef %offset, i64 noundef %bytes) local_unnamed_addr #0 {
entry:
  %cmp28 = icmp ne i32 %iov_cnt, 0
  %cmp129 = icmp ne i32 %dst_iov_cnt, 0
  %or.cond30 = and i1 %cmp28, %cmp129
  br i1 %or.cond30, label %land.rhs.preheader, label %for.end

land.rhs.preheader:                               ; preds = %entry
  %0 = zext i32 %iov_cnt to i64
  br label %land.rhs

land.rhs:                                         ; preds = %land.rhs.preheader, %for.inc
  %indvars.iv = phi i64 [ 0, %land.rhs.preheader ], [ %indvars.iv.next, %for.inc ]
  %offset.addr.034 = phi i64 [ %offset, %land.rhs.preheader ], [ %offset.addr.1, %for.inc ]
  %bytes.addr.033 = phi i64 [ %bytes, %land.rhs.preheader ], [ %bytes.addr.1, %for.inc ]
  %j.031 = phi i32 [ 0, %land.rhs.preheader ], [ %j.1, %for.inc ]
  %tobool = icmp ne i64 %offset.addr.034, 0
  %tobool2 = icmp ne i64 %bytes.addr.033, 0
  %1 = select i1 %tobool, i1 true, i1 %tobool2
  br i1 %1, label %for.body, label %if.end24

for.body:                                         ; preds = %land.rhs
  %arrayidx = getelementptr %struct.iovec, ptr %iov, i64 %indvars.iv
  %iov_len = getelementptr inbounds nuw i8, ptr %arrayidx, i64 8
  %2 = load i64, ptr %iov_len, align 8
  %cmp3.not = icmp ult i64 %offset.addr.034, %2
  br i1 %cmp3.not, label %if.end, label %if.then

if.then:                                          ; preds = %for.body
  %sub = sub nuw i64 %offset.addr.034, %2
  br label %for.inc

if.end:                                           ; preds = %for.body
  %sub10 = sub nuw i64 %2, %offset.addr.034
  %cond = tail call i64 @llvm.umin.i64(i64 %bytes.addr.033, i64 %sub10)
  %3 = load ptr, ptr %arrayidx, align 8
  %add.ptr = getelementptr i8, ptr %3, i64 %offset.addr.034
  %idxprom14 = zext i32 %j.031 to i64
  %arrayidx15 = getelementptr %struct.iovec, ptr %dst_iov, i64 %idxprom14
  store ptr %add.ptr, ptr %arrayidx15, align 8
  %iov_len19 = getelementptr inbounds nuw i8, ptr %arrayidx15, i64 8
  store i64 %cond, ptr %iov_len19, align 8
  %inc = add nuw i32 %j.031, 1
  %sub20 = sub i64 %bytes.addr.033, %cond
  br label %for.inc

for.inc:                                          ; preds = %if.end, %if.then
  %j.1 = phi i32 [ %j.031, %if.then ], [ %inc, %if.end ]
  %bytes.addr.1 = phi i64 [ %bytes.addr.033, %if.then ], [ %sub20, %if.end ]
  %offset.addr.1 = phi i64 [ %sub, %if.then ], [ 0, %if.end ]
  %indvars.iv.next = add nuw nsw i64 %indvars.iv, 1
  %cmp = icmp samesign ult i64 %indvars.iv.next, %0
  %cmp1 = icmp ult i32 %j.1, %dst_iov_cnt
  %or.cond = select i1 %cmp, i1 %cmp1, i1 false
  br i1 %or.cond, label %land.rhs, label %for.end, !llvm.loop !10

for.end:                                          ; preds = %for.inc, %entry
  %j.0.lcssa = phi i32 [ 0, %entry ], [ %j.1, %for.inc ]
  %offset.addr.0.lcssa = phi i64 [ %offset, %entry ], [ %offset.addr.1, %for.inc ]
  %cmp22 = icmp eq i64 %offset.addr.0.lcssa, 0
  br i1 %cmp22, label %if.end24, label %if.else

if.else:                                          ; preds = %for.end
  tail call void @__assert_fail(ptr noundef nonnull @.str, ptr noundef nonnull @.str.1, i32 noundef 269, ptr noundef nonnull @__PRETTY_FUNCTION__.iov_copy) #17
  unreachable

if.end24:                                         ; preds = %land.rhs, %for.end
  %j.027 = phi i32 [ %j.0.lcssa, %for.end ], [ %j.031, %land.rhs ]
  ret i32 %j.027
}